target datalayout = "e-m:e-p270:32:32-p271:32:32-p272:64:64-i64:64-i128:128-f80:128-n8:16:32:64-S128"
target triple = "x86_64-unknown-linux-gnu"

%struct.anon = type { i32, i16, i16 }
%struct.ResourceData = type { ptr, ptr, ptr, ptr, i32, i32, ptr, i32, i32, i8, i8, i8, i8 }

@_ZL12gEmptyString = internal constant %struct.anon zeroinitializer, align 4

; Function Attrs: mustprogress nounwind uwtable
define ptr @res_getAlias_75(ptr noundef %pResData, i32 noundef %res, ptr noundef %pLength) #2 {
entry:
  %pResData.addr = alloca ptr, align 8
  %res.addr = alloca i32, align 4
  %pLength.addr = alloca ptr, align 8
  %p = alloca ptr, align 8
  %offset = alloca i32, align 4
  %length = alloca i32, align 4
  %p32 = alloca ptr, align 8
  store ptr %pResData, ptr %pResData.addr, align 8
  store i32 %res, ptr %res.addr, align 4
  store ptr %pLength, ptr %pLength.addr, align 8
  %0 = load i32, ptr %res.addr, align 4
  %and = and i32 %0, 268435455
  store i32 %and, ptr %offset, align 4
  %1 = load i32, ptr %res.addr, align 4
  %shr = lshr i32 %1, 28
  %cmp = icmp eq i32 %shr, 3
  br i1 %cmp, label %if.then, label %if.else

if.then:                                          ; preds = %entry
  %2 = load i32, ptr %offset, align 4
  %cmp1 = icmp eq i32 %2, 0
  br i1 %cmp1, label %cond.true, label %cond.false

cond.true:                                        ; preds = %if.then
  br label %cond.end

cond.false:                                       ; preds = %if.then
  %3 = load ptr, ptr %pResData.addr, align 8
  %pRoot = getelementptr inbounds %struct.ResourceData, ptr %3, i32 0, i32 1
  %4 = load ptr, ptr %pRoot, align 8
  %5 = load i32, ptr %offset, align 4
  %idx.ext = zext i32 %5 to i64
  %add.ptr = getelementptr inbounds i32, ptr %4, i64 %idx.ext
  br label %cond.end

cond.end:                                         ; preds = %cond.false, %cond.true
  %cond = phi ptr [ @_ZL12gEmptyString, %cond.true ], [ %add.ptr, %cond.false ]
  store ptr %cond, ptr %p32, align 8
  %6 = load ptr, ptr %p32, align 8
  %incdec.ptr = getelementptr inbounds i32, ptr %6, i32 1
  store ptr %incdec.ptr, ptr %p32, align 8
  %7 = load i32, ptr %6, align 4
  store i32 %7, ptr %length, align 4
  %8 = load ptr, ptr %p32, align 8
  store ptr %8, ptr %p, align 8
  br label %if.end

if.else:                                          ; preds = %entry
  store ptr null, ptr %p, align 8
  store i32 0, ptr %length, align 4
  br label %if.end

if.end:                                           ; preds = %if.else, %cond.end
  %9 = load ptr, ptr %pLength.addr, align 8
  %tobool = icmp ne ptr %9, null
  br i1 %tobool, label %if.then2, label %if.end3

if.then2:                                         ; preds = %if.end
  %10 = load i32, ptr %length, align 4
  %11 = load ptr, ptr %pLength.addr, align 8
  store i32 %10, ptr %11, align 4
  br label %if.end3

if.end3:                                          ; preds = %if.then2, %if.end
  %12 = load ptr, ptr %p, align 8
  ret ptr %12
}