; Function Attrs: mustprogress nofree norecurse nosync nounwind willreturn memory(read, argmem: readwrite, inaccessiblemem: none) uwtable
define ptr @res_getAlias_75(ptr nocapture noundef readonly %pResData, i32 noundef %res, ptr noundef writeonly %pLength) local_unnamed_addr #5 {
entry:
  %and = and i32 %res, 268435455
  %shr.mask = and i32 %res, -268435456
  %cmp = icmp eq i32 %shr.mask, 805306368
  br i1 %cmp, label %if.then, label %if.end

if.then:                                          ; preds = %entry
  %cmp1 = icmp eq i32 %and, 0
  br i1 %cmp1, label %cond.end, label %cond.false

cond.false:                                       ; preds = %if.then
  %pRoot = getelementptr inbounds i8, ptr %pResData, i64 8
  %0 = load ptr, ptr %pRoot, align 8
  %idx.ext = zext nneg i32 %and to i64
  %add.ptr = getelementptr inbounds i32, ptr %0, i64 %idx.ext
  br label %cond.end

cond.end:                                         ; preds = %if.then, %cond.false
  %cond = phi ptr [ %add.ptr, %cond.false ], [ @_ZL12gEmptyString, %if.then ]
  %incdec.ptr = getelementptr inbounds i8, ptr %cond, i64 4
  %1 = load i32, ptr %cond, align 4
  br label %if.end

if.end:                                           ; preds = %entry, %cond.end
  %length.0 = phi i32 [ %1, %cond.end ], [ 0, %entry ]
  %p.0 = phi ptr [ %incdec.ptr, %cond.end ], [ null, %entry ]
  %tobool.not = icmp eq ptr %pLength, null
  br i1 %tobool.not, label %if.end3, label %if.then2

if.then2:                                         ; preds = %if.end
  store i32 %length.0, ptr %pLength, align 4
  br label %if.end3

if.end3:                                          ; preds = %if.then2, %if.end
  ret ptr %p.0
}